target datalayout = "e-m:e-p270:32:32-p271:32:32-p272:64:64-i64:64-i128:128-f80:128-n8:16:32:64-S128"
target triple = "x86_64-pc-linux-gnu"

; Function Attrs: mustprogress nounwind uwtable
define hidden noundef zeroext i1 @_Z23has_one_at_first_k_bitsjPKjj(i32 noundef %0, ptr noundef %1, i32 noundef %2) #4 {
  %4 = alloca i1, align 1
  %5 = alloca i32, align 4
  %6 = alloca ptr, align 8
  %7 = alloca i32, align 4
  %8 = alloca i32, align 4
  %9 = alloca i32, align 4
  %10 = alloca i32, align 4
  %11 = alloca i32, align 4
  %12 = alloca i32, align 4
  store i32 %0, ptr %5, align 4, !tbaa !3
  store ptr %1, ptr %6, align 8, !tbaa !7
  store i32 %2, ptr %7, align 4, !tbaa !3
  call void @llvm.lifetime.start.p0(i64 4, ptr %8) #3
  %13 = load i32, ptr %7, align 4, !tbaa !3
  %14 = zext i32 %13 to i64
  %15 = udiv i64 %14, 32
  %16 = trunc i64 %15 to i32
  store i32 %16, ptr %8, align 4, !tbaa !3
  %17 = load i32, ptr %8, align 4, !tbaa !3
  %18 = load i32, ptr %5, align 4, !tbaa !3
  %19 = icmp ugt i32 %17, %18
  br i1 %19, label %20, label %22

20:                                               ; preds = %3
  %21 = load i32, ptr %5, align 4, !tbaa !3
  store i32 %21, ptr %8, align 4, !tbaa !3
  br label %22

22:                                               ; preds = %20, %3
  call void @llvm.lifetime.start.p0(i64 4, ptr %9) #3
  store i32 0, ptr %9, align 4, !tbaa !3
  br label %23

23:                                               ; preds = %37, %22
  %24 = load i32, ptr %9, align 4, !tbaa !3
  %25 = load i32, ptr %8, align 4, !tbaa !3
  %26 = icmp ult i32 %24, %25
  br i1 %26, label %28, label %27

27:                                               ; preds = %23
  store i32 2, ptr %10, align 4
  br label %40

28:                                               ; preds = %23
  %29 = load ptr, ptr %6, align 8, !tbaa !7
  %30 = load i32, ptr %9, align 4, !tbaa !3
  %31 = zext i32 %30 to i64
  %32 = getelementptr inbounds nuw i32, ptr %29, i64 %31
  %33 = load i32, ptr %32, align 4, !tbaa !3
  %34 = icmp ne i32 %33, 0
  br i1 %34, label %35, label %36

35:                                               ; preds = %28
  store i1 true, ptr %4, align 1
  store i32 1, ptr %10, align 4
  br label %40

36:                                               ; preds = %28
  br label %37

37:                                               ; preds = %36
  %38 = load i32, ptr %9, align 4, !tbaa !3
  %39 = add i32 %38, 1
  store i32 %39, ptr %9, align 4, !tbaa !3
  br label %23, !llvm.loop !32

40:                                               ; preds = %35, %27
  call void @llvm.lifetime.end.p0(i64 4, ptr %9) #3
  %41 = load i32, ptr %10, align 4
  switch i32 %41, label %63 [
    i32 2, label %42
  ]

42:                                               ; preds = %40
  %43 = load i32, ptr %8, align 4, !tbaa !3
  %44 = load i32, ptr %5, align 4, !tbaa !3
  %45 = icmp ult i32 %43, %44
  br i1 %45, label %46, label %62

46:                                               ; preds = %42
  call void @llvm.lifetime.start.p0(i64 4, ptr %11) #3
  %47 = load i32, ptr %7, align 4, !tbaa !3
  %48 = zext i32 %47 to i64
  %49 = urem i64 %48, 32
  %50 = trunc i64 %49 to i32
  store i32 %50, ptr %11, align 4, !tbaa !3
  call void @llvm.lifetime.start.p0(i64 4, ptr %12) #3
  %51 = load i32, ptr %11, align 4, !tbaa !3
  %52 = shl i32 1, %51
  %53 = sub i32 %52, 1
  store i32 %53, ptr %12, align 4, !tbaa !3
  %54 = load ptr, ptr %6, align 8, !tbaa !7
  %55 = load i32, ptr %8, align 4, !tbaa !3
  %56 = zext i32 %55 to i64
  %57 = getelementptr inbounds nuw i32, ptr %54, i64 %56
  %58 = load i32, ptr %57, align 4, !tbaa !3
  %59 = load i32, ptr %12, align 4, !tbaa !3
  %60 = and i32 %58, %59
  %61 = icmp ne i32 %60, 0
  store i1 %61, ptr %4, align 1
  store i32 1, ptr %10, align 4
  call void @llvm.lifetime.end.p0(i64 4, ptr %12) #3
  call void @llvm.lifetime.end.p0(i64 4, ptr %11) #3
  br label %63

62:                                               ; preds = %42
  store i1 false, ptr %4, align 1
  store i32 1, ptr %10, align 4
  br label %63

63:                                               ; preds = %62, %46, %40
  call void @llvm.lifetime.end.p0(i64 4, ptr %8) #3
  %64 = load i1, ptr %4, align 1
  ret i1 %64
}