; Function Attrs: mustprogress nofree norecurse nosync nounwind willreturn memory(argmem: read) uwtable
define hidden noundef zeroext i1 @_Z23has_one_at_first_k_bitsjPKjj(i32 noundef %0, ptr noundef readonly captures(none) %1, i32 noundef %2) local_unnamed_addr #5 {
  %4 = lshr i32 %2, 5
  %spec.select = tail call i32 @llvm.umin.i32(i32 %4, i32 %0)
  %.not2122.not = icmp eq i32 %spec.select, 0
  br i1 %.not2122.not, label %.critedge, label %.lr.ph.preheader

.lr.ph.preheader:                                 ; preds = %3
  %wide.trip.count = zext nneg i32 %spec.select to i64
  br label %.lr.ph

5:                                                ; preds = %.lr.ph
  %indvars.iv.next = add nuw nsw i64 %indvars.iv, 1
  %exitcond.not = icmp eq i64 %indvars.iv.next, %wide.trip.count
  br i1 %exitcond.not, label %.critedge, label %.lr.ph, !llvm.loop !22

.lr.ph:                                           ; preds = %.lr.ph.preheader, %5
  %indvars.iv = phi i64 [ 0, %.lr.ph.preheader ], [ %indvars.iv.next, %5 ]
  %6 = getelementptr inbounds nuw i32, ptr %1, i64 %indvars.iv
  %7 = load i32, ptr %6, align 4, !tbaa !3
  %.not = icmp eq i32 %7, 0
  br i1 %.not, label %5, label %.loopexit

.critedge:                                        ; preds = %5, %3
  %8 = icmp ult i32 %4, %0
  br i1 %8, label %9, label %.loopexit

9:                                                ; preds = %.critedge
  %10 = and i32 %2, 31
  %notmask = shl nsw i32 -1, %10
  %11 = xor i32 %notmask, -1
  %12 = zext nneg i32 %spec.select to i64
  %13 = getelementptr inbounds nuw i32, ptr %1, i64 %12
  %14 = load i32, ptr %13, align 4, !tbaa !3
  %15 = and i32 %14, %11
  %16 = icmp ne i32 %15, 0
  br label %.loopexit

.loopexit:                                        ; preds = %.lr.ph, %.critedge, %9
  %.1 = phi i1 [ %16, %9 ], [ false, %.critedge ], [ true, %.lr.ph ]
  ret i1 %.1
}